target datalayout = "e-m:e-p270:32:32-p271:32:32-p272:64:64-i64:64-i128:128-f80:128-n8:16:32:64-S128"
target triple = "x86_64-pc-linux-gnu"

%struct.jpeg_transform_info = type { i32, i32, i32, i32, i32, i32, i32, i32, i32, i32, i32, i32, i32, i32, ptr, ptr, i32, ptr, i32, i32, i32, i32, i32, i32, i32, i32 }

; Function Attrs: nounwind uwtable
define internal i32 @jt_read_integer(ptr noundef %0, ptr noundef %1) #0 {
  %3 = alloca i32, align 4
  %4 = alloca ptr, align 8
  %5 = alloca ptr, align 8
  %6 = alloca ptr, align 8
  %7 = alloca i32, align 4
  %8 = alloca i32, align 4
  store ptr %0, ptr %4, align 8, !tbaa !24
  store ptr %1, ptr %5, align 8, !tbaa !26
  call void @llvm.lifetime.start.p0(i64 8, ptr %6) #6
  %9 = load ptr, ptr %4, align 8, !tbaa !24
  %10 = load ptr, ptr %9, align 8, !tbaa !8
  store ptr %10, ptr %6, align 8, !tbaa !8
  call void @llvm.lifetime.start.p0(i64 4, ptr %7) #6
  store i32 0, ptr %7, align 4, !tbaa !28
  br label %11

11:                                               ; preds = %31, %2
  %12 = call ptr @__ctype_b_loc() #5
  %13 = load ptr, ptr %12, align 8, !tbaa !19
  %14 = load ptr, ptr %6, align 8, !tbaa !8
  %15 = load i8, ptr %14, align 1, !tbaa !21
  %16 = sext i8 %15 to i32
  %17 = sext i32 %16 to i64
  %18 = getelementptr inbounds i16, ptr %13, i64 %17
  %19 = load i16, ptr %18, align 2, !tbaa !22
  %20 = zext i16 %19 to i32
  %21 = and i32 %20, 2048
  %22 = icmp ne i32 %21, 0
  br i1 %22, label %23, label %34

23:                                               ; preds = %11
  %24 = load i32, ptr %7, align 4, !tbaa !28
  %25 = mul i32 %24, 10
  %26 = load ptr, ptr %6, align 8, !tbaa !8
  %27 = load i8, ptr %26, align 1, !tbaa !21
  %28 = sext i8 %27 to i32
  %29 = sub nsw i32 %28, 48
  %30 = add i32 %25, %29
  store i32 %30, ptr %7, align 4, !tbaa !28
  br label %31

31:                                               ; preds = %23
  %32 = load ptr, ptr %6, align 8, !tbaa !8
  %33 = getelementptr inbounds nuw i8, ptr %32, i32 1
  store ptr %33, ptr %6, align 8, !tbaa !8
  br label %11, !llvm.loop !29

34:                                               ; preds = %11
  %35 = load i32, ptr %7, align 4, !tbaa !28
  %36 = load ptr, ptr %5, align 8, !tbaa !26
  store i32 %35, ptr %36, align 4, !tbaa !28
  %37 = load ptr, ptr %6, align 8, !tbaa !8
  %38 = load ptr, ptr %4, align 8, !tbaa !24
  %39 = load ptr, ptr %38, align 8, !tbaa !8
  %40 = icmp eq ptr %37, %39
  br i1 %40, label %41, label %42

41:                                               ; preds = %34
  store i32 0, ptr %3, align 4
  store i32 1, ptr %8, align 4
  br label %45

42:                                               ; preds = %34
  %43 = load ptr, ptr %6, align 8, !tbaa !8
  %44 = load ptr, ptr %4, align 8, !tbaa !24
  store ptr %43, ptr %44, align 8, !tbaa !8
  store i32 1, ptr %3, align 4
  store i32 1, ptr %8, align 4
  br label %45

45:                                               ; preds = %42, %41
  call void @llvm.lifetime.end.p0(i64 4, ptr %7) #6
  call void @llvm.lifetime.end.p0(i64 8, ptr %6) #6
  %46 = load i32, ptr %3, align 4
  ret i32 %46
}

; Function Attrs: nounwind uwtable
define dso_local i32 @jtransform_parse_crop_spec(ptr noundef %0, ptr noundef %1) #0 {
  %3 = alloca i32, align 4
  %4 = alloca ptr, align 8
  %5 = alloca ptr, align 8
  store ptr %0, ptr %4, align 8, !tbaa !4
  store ptr %1, ptr %5, align 8, !tbaa !8
  %6 = load ptr, ptr %4, align 8, !tbaa !4
  %7 = getelementptr inbounds nuw %struct.jpeg_transform_info, ptr %6, i32 0, i32 4
  store i32 0, ptr %7, align 8, !tbaa !10
  %8 = load ptr, ptr %4, align 8, !tbaa !4
  %9 = getelementptr inbounds nuw %struct.jpeg_transform_info, ptr %8, i32 0, i32 7
  store i32 0, ptr %9, align 4, !tbaa !15
  %10 = load ptr, ptr %4, align 8, !tbaa !4
  %11 = getelementptr inbounds nuw %struct.jpeg_transform_info, ptr %10, i32 0, i32 9
  store i32 0, ptr %11, align 4, !tbaa !16
  %12 = load ptr, ptr %4, align 8, !tbaa !4
  %13 = getelementptr inbounds nuw %struct.jpeg_transform_info, ptr %12, i32 0, i32 11
  store i32 0, ptr %13, align 4, !tbaa !17
  %14 = load ptr, ptr %4, align 8, !tbaa !4
  %15 = getelementptr inbounds nuw %struct.jpeg_transform_info, ptr %14, i32 0, i32 13
  store i32 0, ptr %15, align 4, !tbaa !18
  %16 = call ptr @__ctype_b_loc() #5
  %17 = load ptr, ptr %16, align 8, !tbaa !19
  %18 = load ptr, ptr %5, align 8, !tbaa !8
  %19 = load i8, ptr %18, align 1, !tbaa !21
  %20 = sext i8 %19 to i32
  %21 = sext i32 %20 to i64
  %22 = getelementptr inbounds i16, ptr %17, i64 %21
  %23 = load i16, ptr %22, align 2, !tbaa !22
  %24 = zext i16 %23 to i32
  %25 = and i32 %24, 2048
  %26 = icmp ne i32 %25, 0
  br i1 %26, label %27, label %68

27:                                               ; preds = %2
  %28 = load ptr, ptr %4, align 8, !tbaa !4
  %29 = getelementptr inbounds nuw %struct.jpeg_transform_info, ptr %28, i32 0, i32 6
  %30 = call i32 @jt_read_integer(ptr noundef %5, ptr noundef %29)
  %31 = icmp ne i32 %30, 0
  br i1 %31, label %33, label %32

32:                                               ; preds = %27
  store i32 0, ptr %3, align 4
  br label %182

33:                                               ; preds = %27
  %34 = load ptr, ptr %5, align 8, !tbaa !8
  %35 = load i8, ptr %34, align 1, !tbaa !21
  %36 = sext i8 %35 to i32
  %37 = icmp eq i32 %36, 102
  br i1 %37, label %43, label %38

38:                                               ; preds = %33
  %39 = load ptr, ptr %5, align 8, !tbaa !8
  %40 = load i8, ptr %39, align 1, !tbaa !21
  %41 = sext i8 %40 to i32
  %42 = icmp eq i32 %41, 70
  br i1 %42, label %43, label %48

43:                                               ; preds = %38, %33
  %44 = load ptr, ptr %5, align 8, !tbaa !8
  %45 = getelementptr inbounds nuw i8, ptr %44, i32 1
  store ptr %45, ptr %5, align 8, !tbaa !8
  %46 = load ptr, ptr %4, align 8, !tbaa !4
  %47 = getelementptr inbounds nuw %struct.jpeg_transform_info, ptr %46, i32 0, i32 7
  store i32 3, ptr %47, align 4, !tbaa !15
  br label %67

48:                                               ; preds = %38
  %49 = load ptr, ptr %5, align 8, !tbaa !8
  %50 = load i8, ptr %49, align 1, !tbaa !21
  %51 = sext i8 %50 to i32
  %52 = icmp eq i32 %51, 114
  br i1 %52, label %58, label %53

53:                                               ; preds = %48
  %54 = load ptr, ptr %5, align 8, !tbaa !8
  %55 = load i8, ptr %54, align 1, !tbaa !21
  %56 = sext i8 %55 to i32
  %57 = icmp eq i32 %56, 82
  br i1 %57, label %58, label %63

58:                                               ; preds = %53, %48
  %59 = load ptr, ptr %5, align 8, !tbaa !8
  %60 = getelementptr inbounds nuw i8, ptr %59, i32 1
  store ptr %60, ptr %5, align 8, !tbaa !8
  %61 = load ptr, ptr %4, align 8, !tbaa !4
  %62 = getelementptr inbounds nuw %struct.jpeg_transform_info, ptr %61, i32 0, i32 7
  store i32 4, ptr %62, align 4, !tbaa !15
  br label %66

63:                                               ; preds = %53
  %64 = load ptr, ptr %4, align 8, !tbaa !4
  %65 = getelementptr inbounds nuw %struct.jpeg_transform_info, ptr %64, i32 0, i32 7
  store i32 1, ptr %65, align 4, !tbaa !15
  br label %66

66:                                               ; preds = %63, %58
  br label %67

67:                                               ; preds = %66, %43
  br label %68

68:                                               ; preds = %67, %2
  %69 = load ptr, ptr %5, align 8, !tbaa !8
  %70 = load i8, ptr %69, align 1, !tbaa !21
  %71 = sext i8 %70 to i32
  %72 = icmp eq i32 %71, 120
  br i1 %72, label %78, label %73

73:                                               ; preds = %68
  %74 = load ptr, ptr %5, align 8, !tbaa !8
  %75 = load i8, ptr %74, align 1, !tbaa !21
  %76 = sext i8 %75 to i32
  %77 = icmp eq i32 %76, 88
  br i1 %77, label %78, label %121

78:                                               ; preds = %73, %68
  %79 = load ptr, ptr %5, align 8, !tbaa !8
  %80 = getelementptr inbounds nuw i8, ptr %79, i32 1
  store ptr %80, ptr %5, align 8, !tbaa !8
  %81 = load ptr, ptr %4, align 8, !tbaa !4
  %82 = getelementptr inbounds nuw %struct.jpeg_transform_info, ptr %81, i32 0, i32 8
  %83 = call i32 @jt_read_integer(ptr noundef %5, ptr noundef %82)
  %84 = icmp ne i32 %83, 0
  br i1 %84, label %86, label %85

85:                                               ; preds = %78
  store i32 0, ptr %3, align 4
  br label %182

86:                                               ; preds = %78
  %87 = load ptr, ptr %5, align 8, !tbaa !8
  %88 = load i8, ptr %87, align 1, !tbaa !21
  %89 = sext i8 %88 to i32
  %90 = icmp eq i32 %89, 102
  br i1 %90, label %96, label %91

91:                                               ; preds = %86
  %92 = load ptr, ptr %5, align 8, !tbaa !8
  %93 = load i8, ptr %92, align 1, !tbaa !21
  %94 = sext i8 %93 to i32
  %95 = icmp eq i32 %94, 70
  br i1 %95, label %96, label %101

96:                                               ; preds = %91, %86
  %97 = load ptr, ptr %5, align 8, !tbaa !8
  %98 = getelementptr inbounds nuw i8, ptr %97, i32 1
  store ptr %98, ptr %5, align 8, !tbaa !8
  %99 = load ptr, ptr %4, align 8, !tbaa !4
  %100 = getelementptr inbounds nuw %struct.jpeg_transform_info, ptr %99, i32 0, i32 9
  store i32 3, ptr %100, align 4, !tbaa !16
  br label %120

101:                                              ; preds = %91
  %102 = load ptr, ptr %5, align 8, !tbaa !8
  %103 = load i8, ptr %102, align 1, !tbaa !21
  %104 = sext i8 %103 to i32
  %105 = icmp eq i32 %104, 114
  br i1 %105, label %111, label %106

106:                                              ; preds = %101
  %107 = load ptr, ptr %5, align 8, !tbaa !8
  %108 = load i8, ptr %107, align 1, !tbaa !21
  %109 = sext i8 %108 to i32
  %110 = icmp eq i32 %109, 82
  br i1 %110, label %111, label %116

111:                                              ; preds = %106, %101
  %112 = load ptr, ptr %5, align 8, !tbaa !8
  %113 = getelementptr inbounds nuw i8, ptr %112, i32 1
  store ptr %113, ptr %5, align 8, !tbaa !8
  %114 = load ptr, ptr %4, align 8, !tbaa !4
  %115 = getelementptr inbounds nuw %struct.jpeg_transform_info, ptr %114, i32 0, i32 9
  store i32 4, ptr %115, align 4, !tbaa !16
  br label %119

116:                                              ; preds = %106
  %117 = load ptr, ptr %4, align 8, !tbaa !4
  %118 = getelementptr inbounds nuw %struct.jpeg_transform_info, ptr %117, i32 0, i32 9
  store i32 1, ptr %118, align 4, !tbaa !16
  br label %119

119:                                              ; preds = %116, %111
  br label %120

120:                                              ; preds = %119, %96
  br label %121

121:                                              ; preds = %120, %73
  %122 = load ptr, ptr %5, align 8, !tbaa !8
  %123 = load i8, ptr %122, align 1, !tbaa !21
  %124 = sext i8 %123 to i32
  %125 = icmp eq i32 %124, 43
  br i1 %125, label %131, label %126

126:                                              ; preds = %121
  %127 = load ptr, ptr %5, align 8, !tbaa !8
  %128 = load i8, ptr %127, align 1, !tbaa !21
  %129 = sext i8 %128 to i32
  %130 = icmp eq i32 %129, 45
  br i1 %130, label %131, label %147

131:                                              ; preds = %126, %121
  %132 = load ptr, ptr %5, align 8, !tbaa !8
  %133 = load i8, ptr %132, align 1, !tbaa !21
  %134 = sext i8 %133 to i32
  %135 = icmp eq i32 %134, 45
  %136 = select i1 %135, i32 2, i32 1
  %137 = load ptr, ptr %4, align 8, !tbaa !4
  %138 = getelementptr inbounds nuw %struct.jpeg_transform_info, ptr %137, i32 0, i32 11
  store i32 %136, ptr %138, align 4, !tbaa !17
  %139 = load ptr, ptr %5, align 8, !tbaa !8
  %140 = getelementptr inbounds nuw i8, ptr %139, i32 1
  store ptr %140, ptr %5, align 8, !tbaa !8
  %141 = load ptr, ptr %4, align 8, !tbaa !4
  %142 = getelementptr inbounds nuw %struct.jpeg_transform_info, ptr %141, i32 0, i32 10
  %143 = call i32 @jt_read_integer(ptr noundef %5, ptr noundef %142)
  %144 = icmp ne i32 %143, 0
  br i1 %144, label %146, label %145

145:                                              ; preds = %131
  store i32 0, ptr %3, align 4
  br label %182

146:                                              ; preds = %131
  br label %147

147:                                              ; preds = %146, %126
  %148 = load ptr, ptr %5, align 8, !tbaa !8
  %149 = load i8, ptr %148, align 1, !tbaa !21
  %150 = sext i8 %149 to i32
  %151 = icmp eq i32 %150, 43
  br i1 %151, label %157, label %152

152:                                              ; preds = %147
  %153 = load ptr, ptr %5, align 8, !tbaa !8
  %154 = load i8, ptr %153, align 1, !tbaa !21
  %155 = sext i8 %154 to i32
  %156 = icmp eq i32 %155, 45
  br i1 %156, label %157, label %173

157:                                              ; preds = %152, %147
  %158 = load ptr, ptr %5, align 8, !tbaa !8
  %159 = load i8, ptr %158, align 1, !tbaa !21
  %160 = sext i8 %159 to i32
  %161 = icmp eq i32 %160, 45
  %162 = select i1 %161, i32 2, i32 1
  %163 = load ptr, ptr %4, align 8, !tbaa !4
  %164 = getelementptr inbounds nuw %struct.jpeg_transform_info, ptr %163, i32 0, i32 13
  store i32 %162, ptr %164, align 4, !tbaa !18
  %165 = load ptr, ptr %5, align 8, !tbaa !8
  %166 = getelementptr inbounds nuw i8, ptr %165, i32 1
  store ptr %166, ptr %5, align 8, !tbaa !8
  %167 = load ptr, ptr %4, align 8, !tbaa !4
  %168 = getelementptr inbounds nuw %struct.jpeg_transform_info, ptr %167, i32 0, i32 12
  %169 = call i32 @jt_read_integer(ptr noundef %5, ptr noundef %168)
  %170 = icmp ne i32 %169, 0
  br i1 %170, label %172, label %171

171:                                              ; preds = %157
  store i32 0, ptr %3, align 4
  br label %182

172:                                              ; preds = %157
  br label %173

173:                                              ; preds = %172, %152
  %174 = load ptr, ptr %5, align 8, !tbaa !8
  %175 = load i8, ptr %174, align 1, !tbaa !21
  %176 = sext i8 %175 to i32
  %177 = icmp ne i32 %176, 0
  br i1 %177, label %178, label %179

178:                                              ; preds = %173
  store i32 0, ptr %3, align 4
  br label %182

179:                                              ; preds = %173
  %180 = load ptr, ptr %4, align 8, !tbaa !4
  %181 = getelementptr inbounds nuw %struct.jpeg_transform_info, ptr %180, i32 0, i32 4
  store i32 1, ptr %181, align 8, !tbaa !10
  store i32 1, ptr %3, align 4
  br label %182

182:                                              ; preds = %179, %178, %171, %145, %85, %32
  %183 = load i32, ptr %3, align 4
  ret i32 %183
}