; Function Attrs: nofree nosync nounwind memory(read, argmem: readwrite, inaccessiblemem: none) uwtable
define dso_local range(i32 0, 2) i32 @jtransform_parse_crop_spec(ptr noundef writeonly captures(none) initializes((16, 20), (28, 32), (36, 40), (44, 48), (52, 56)) %0, ptr noundef readonly captures(none) %1) local_unnamed_addr #0 {
  %3 = getelementptr inbounds nuw i8, ptr %0, i64 16
  store i32 0, ptr %3, align 8, !tbaa !4
  %4 = getelementptr inbounds nuw i8, ptr %0, i64 28
  store i32 0, ptr %4, align 4, !tbaa !12
  %5 = getelementptr inbounds nuw i8, ptr %0, i64 36
  store i32 0, ptr %5, align 4, !tbaa !13
  %6 = getelementptr inbounds nuw i8, ptr %0, i64 44
  store i32 0, ptr %6, align 4, !tbaa !14
  %7 = getelementptr inbounds nuw i8, ptr %0, i64 52
  store i32 0, ptr %7, align 4, !tbaa !15
  %8 = tail call ptr @__ctype_b_loc() #7
  %9 = load ptr, ptr %8, align 8, !tbaa !16
  %10 = load i8, ptr %1, align 1, !tbaa !18
  %11 = sext i8 %10 to i64
  %12 = getelementptr inbounds i16, ptr %9, i64 %11
  %13 = load i16, ptr %12, align 2, !tbaa !19
  %14 = and i16 %13, 2048
  %.not = icmp eq i16 %14, 0
  br i1 %.not, label %33, label %.lr.ph.i

.lr.ph.i:                                         ; preds = %2, %.lr.ph.i
  %15 = phi i8 [ %21, %.lr.ph.i ], [ %10, %2 ]
  %.015.i = phi i32 [ %19, %.lr.ph.i ], [ 0, %2 ]
  %.01114.i = phi ptr [ %20, %.lr.ph.i ], [ %1, %2 ]
  %16 = sext i8 %15 to i32
  %17 = mul i32 %.015.i, 10
  %18 = add nsw i32 %16, -48
  %19 = add i32 %18, %17
  %20 = getelementptr inbounds nuw i8, ptr %.01114.i, i64 1
  %21 = load i8, ptr %20, align 1, !tbaa !18
  %22 = sext i8 %21 to i64
  %23 = getelementptr inbounds i16, ptr %9, i64 %22
  %24 = load i16, ptr %23, align 2, !tbaa !19
  %25 = and i16 %24, 2048
  %.not.i = icmp eq i16 %25, 0
  br i1 %.not.i, label %26, label %.lr.ph.i, !llvm.loop !21

26:                                               ; preds = %.lr.ph.i
  %27 = getelementptr inbounds nuw i8, ptr %0, i64 24
  store i32 %19, ptr %27, align 4, !tbaa !23
  %28 = load i8, ptr %20, align 1, !tbaa !18
  switch i8 %28, label %.sink.split [
    i8 102, label %29
    i8 70, label %29
    i8 114, label %31
    i8 82, label %31
  ]

29:                                               ; preds = %26, %26
  %30 = getelementptr inbounds nuw i8, ptr %.01114.i, i64 2
  br label %.sink.split

31:                                               ; preds = %26, %26
  %32 = getelementptr inbounds nuw i8, ptr %.01114.i, i64 2
  br label %.sink.split

.sink.split:                                      ; preds = %26, %31, %29
  %.sink = phi i32 [ 3, %29 ], [ 4, %31 ], [ 1, %26 ]
  %.069.ph = phi ptr [ %30, %29 ], [ %32, %31 ], [ %20, %26 ]
  store i32 %.sink, ptr %4, align 4, !tbaa !12
  br label %33

33:                                               ; preds = %.sink.split, %2
  %.069 = phi ptr [ %1, %2 ], [ %.069.ph, %.sink.split ]
  %34 = load i8, ptr %.069, align 1, !tbaa !18
  switch i8 %34, label %60 [
    i8 120, label %35
    i8 88, label %35
  ]

35:                                               ; preds = %33, %33
  %36 = getelementptr inbounds nuw i8, ptr %.069, i64 1
  %37 = getelementptr inbounds nuw i8, ptr %0, i64 32
  %38 = load i8, ptr %36, align 1, !tbaa !18
  %39 = sext i8 %38 to i64
  %40 = getelementptr inbounds i16, ptr %9, i64 %39
  %41 = load i16, ptr %40, align 2, !tbaa !19
  %42 = and i16 %41, 2048
  %.not13.i28 = icmp eq i16 %42, 0
  br i1 %.not13.i28, label %jt_read_integer.exit35.thread, label %.lr.ph.i29

jt_read_integer.exit35.thread:                    ; preds = %35
  store i32 0, ptr %37, align 4, !tbaa !23
  br label %109

.lr.ph.i29:                                       ; preds = %35, %.lr.ph.i29
  %43 = phi i8 [ %49, %.lr.ph.i29 ], [ %38, %35 ]
  %.015.i30 = phi i32 [ %47, %.lr.ph.i29 ], [ 0, %35 ]
  %.01114.i31 = phi ptr [ %48, %.lr.ph.i29 ], [ %36, %35 ]
  %44 = sext i8 %43 to i32
  %45 = mul i32 %.015.i30, 10
  %46 = add nsw i32 %44, -48
  %47 = add i32 %46, %45
  %48 = getelementptr inbounds nuw i8, ptr %.01114.i31, i64 1
  %49 = load i8, ptr %48, align 1, !tbaa !18
  %50 = sext i8 %49 to i64
  %51 = getelementptr inbounds i16, ptr %9, i64 %50
  %52 = load i16, ptr %51, align 2, !tbaa !19
  %53 = and i16 %52, 2048
  %.not.i32 = icmp eq i16 %53, 0
  br i1 %.not.i32, label %54, label %.lr.ph.i29, !llvm.loop !21

54:                                               ; preds = %.lr.ph.i29
  store i32 %47, ptr %37, align 4, !tbaa !23
  %55 = load i8, ptr %48, align 1, !tbaa !18
  switch i8 %55, label %thread-pre-split [
    i8 102, label %56
    i8 70, label %56
    i8 114, label %58
    i8 82, label %58
  ]

56:                                               ; preds = %54, %54
  %57 = getelementptr inbounds nuw i8, ptr %.01114.i31, i64 2
  br label %thread-pre-split

58:                                               ; preds = %54, %54
  %59 = getelementptr inbounds nuw i8, ptr %.01114.i31, i64 2
  br label %thread-pre-split

thread-pre-split:                                 ; preds = %54, %58, %56
  %.sink101 = phi i32 [ 4, %58 ], [ 3, %56 ], [ 1, %54 ]
  %.1.ph = phi ptr [ %59, %58 ], [ %57, %56 ], [ %48, %54 ]
  store i32 %.sink101, ptr %5, align 4, !tbaa !13
  %.pr = load i8, ptr %.1.ph, align 1, !tbaa !18
  br label %60

60:                                               ; preds = %thread-pre-split, %33
  %61 = phi i8 [ %.pr, %thread-pre-split ], [ %34, %33 ]
  %.1 = phi ptr [ %.1.ph, %thread-pre-split ], [ %.069, %33 ]
  switch i8 %61, label %83 [
    i8 43, label %62
    i8 45, label %62
  ]

62:                                               ; preds = %60, %60
  %63 = icmp eq i8 %61, 45
  %64 = select i1 %63, i32 2, i32 1
  store i32 %64, ptr %6, align 4, !tbaa !14
  %65 = getelementptr inbounds nuw i8, ptr %.1, i64 1
  %66 = getelementptr inbounds nuw i8, ptr %0, i64 40
  %67 = load i8, ptr %65, align 1, !tbaa !18
  %68 = sext i8 %67 to i64
  %69 = getelementptr inbounds i16, ptr %9, i64 %68
  %70 = load i16, ptr %69, align 2, !tbaa !19
  %71 = and i16 %70, 2048
  %.not13.i36 = icmp eq i16 %71, 0
  br i1 %.not13.i36, label %jt_read_integer.exit43.thread, label %.lr.ph.i37

jt_read_integer.exit43.thread:                    ; preds = %62
  store i32 0, ptr %66, align 4, !tbaa !23
  br label %109

.lr.ph.i37:                                       ; preds = %62, %.lr.ph.i37
  %72 = phi i8 [ %78, %.lr.ph.i37 ], [ %67, %62 ]
  %.015.i38 = phi i32 [ %76, %.lr.ph.i37 ], [ 0, %62 ]
  %.01114.i39 = phi ptr [ %77, %.lr.ph.i37 ], [ %65, %62 ]
  %73 = sext i8 %72 to i32
  %74 = mul i32 %.015.i38, 10
  %75 = add nsw i32 %73, -48
  %76 = add i32 %75, %74
  %77 = getelementptr inbounds nuw i8, ptr %.01114.i39, i64 1
  %78 = load i8, ptr %77, align 1, !tbaa !18
  %79 = sext i8 %78 to i64
  %80 = getelementptr inbounds i16, ptr %9, i64 %79
  %81 = load i16, ptr %80, align 2, !tbaa !19
  %82 = and i16 %81, 2048
  %.not.i40 = icmp eq i16 %82, 0
  br i1 %.not.i40, label %jt_read_integer.exit43, label %.lr.ph.i37, !llvm.loop !21

jt_read_integer.exit43:                           ; preds = %.lr.ph.i37
  store i32 %76, ptr %66, align 4, !tbaa !23
  %.pre = load i8, ptr %77, align 1, !tbaa !18
  br label %83

83:                                               ; preds = %jt_read_integer.exit43, %60
  %84 = phi i8 [ %61, %60 ], [ %.pre, %jt_read_integer.exit43 ]
  %.2 = phi ptr [ %.1, %60 ], [ %77, %jt_read_integer.exit43 ]
  switch i8 %84, label %106 [
    i8 43, label %85
    i8 45, label %85
  ]

85:                                               ; preds = %83, %83
  %86 = icmp eq i8 %84, 45
  %87 = select i1 %86, i32 2, i32 1
  store i32 %87, ptr %7, align 4, !tbaa !15
  %88 = getelementptr inbounds nuw i8, ptr %.2, i64 1
  %89 = getelementptr inbounds nuw i8, ptr %0, i64 48
  %90 = load i8, ptr %88, align 1, !tbaa !18
  %91 = sext i8 %90 to i64
  %92 = getelementptr inbounds i16, ptr %9, i64 %91
  %93 = load i16, ptr %92, align 2, !tbaa !19
  %94 = and i16 %93, 2048
  %.not13.i44 = icmp eq i16 %94, 0
  br i1 %.not13.i44, label %jt_read_integer.exit51.thread, label %.lr.ph.i45

jt_read_integer.exit51.thread:                    ; preds = %85
  store i32 0, ptr %89, align 4, !tbaa !23
  br label %109

.lr.ph.i45:                                       ; preds = %85, %.lr.ph.i45
  %95 = phi i8 [ %101, %.lr.ph.i45 ], [ %90, %85 ]
  %.015.i46 = phi i32 [ %99, %.lr.ph.i45 ], [ 0, %85 ]
  %.01114.i47 = phi ptr [ %100, %.lr.ph.i45 ], [ %88, %85 ]
  %96 = sext i8 %95 to i32
  %97 = mul i32 %.015.i46, 10
  %98 = add nsw i32 %96, -48
  %99 = add i32 %98, %97
  %100 = getelementptr inbounds nuw i8, ptr %.01114.i47, i64 1
  %101 = load i8, ptr %100, align 1, !tbaa !18
  %102 = sext i8 %101 to i64
  %103 = getelementptr inbounds i16, ptr %9, i64 %102
  %104 = load i16, ptr %103, align 2, !tbaa !19
  %105 = and i16 %104, 2048
  %.not.i48 = icmp eq i16 %105, 0
  br i1 %.not.i48, label %jt_read_integer.exit51, label %.lr.ph.i45, !llvm.loop !21

jt_read_integer.exit51:                           ; preds = %.lr.ph.i45
  store i32 %99, ptr %89, align 4, !tbaa !23
  %.pr79 = load i8, ptr %100, align 1, !tbaa !18
  br label %106

106:                                              ; preds = %jt_read_integer.exit51, %83
  %107 = phi i8 [ %.pr79, %jt_read_integer.exit51 ], [ %84, %83 ]
  %.not27 = icmp eq i8 %107, 0
  br i1 %.not27, label %108, label %109

108:                                              ; preds = %106
  store i32 1, ptr %3, align 8, !tbaa !4
  br label %109

109:                                              ; preds = %jt_read_integer.exit51.thread, %jt_read_integer.exit43.thread, %jt_read_integer.exit35.thread, %106, %108
  %.0 = phi i32 [ 1, %108 ], [ 0, %106 ], [ 0, %jt_read_integer.exit35.thread ], [ 0, %jt_read_integer.exit43.thread ], [ 0, %jt_read_integer.exit51.thread ]
  ret i32 %.0
}